; Function Attrs: mustprogress nofree norecurse nosync nounwind memory(readwrite, inaccessiblemem: none) uwtable
define dso_local void @_ZN13btGhostObject31removeOverlappingObjectInternalEP17btBroadphaseProxyP12btDispatcherS1_(ptr nocapture noundef nonnull align 8 dereferenceable(408) %this, ptr nocapture noundef readonly %otherProxy, ptr nocapture readnone %dispatcher, ptr nocapture readnone %thisProxy) unnamed_addr #4 align 2 {
entry:
  %0 = load ptr, ptr %otherProxy, align 8
  %m_size.i.i = getelementptr inbounds i8, ptr %this, i64 380
  %1 = load i32, ptr %m_size.i.i, align 4
  %cmp5.i = icmp sgt i32 %1, 0
  br i1 %cmp5.i, label %for.body.lr.ph.i, label %if.end

for.body.lr.ph.i:                                 ; preds = %entry
  %m_data.i = getelementptr inbounds i8, ptr %this, i64 392
  %2 = load ptr, ptr %m_data.i, align 8
  %wide.trip.count.i = zext nneg i32 %1 to i64
  br label %for.body.i

for.body.i:                                       ; preds = %for.inc.i, %for.body.lr.ph.i
  %indvars.iv.i = phi i64 [ 0, %for.body.lr.ph.i ], [ %indvars.iv.next.i, %for.inc.i ]
  %arrayidx.i = getelementptr inbounds ptr, ptr %2, i64 %indvars.iv.i
  %3 = load ptr, ptr %arrayidx.i, align 8
  %cmp3.i = icmp eq ptr %3, %0
  br i1 %cmp3.i, label %_ZNK20btAlignedObjectArrayIP17btCollisionObjectE16findLinearSearchERKS1_.exit, label %for.inc.i

for.inc.i:                                        ; preds = %for.body.i
  %indvars.iv.next.i = add nuw nsw i64 %indvars.iv.i, 1
  %exitcond.not.i = icmp eq i64 %indvars.iv.next.i, %wide.trip.count.i
  br i1 %exitcond.not.i, label %if.end, label %for.body.i, !llvm.loop !5

_ZNK20btAlignedObjectArrayIP17btCollisionObjectE16findLinearSearchERKS1_.exit: ; preds = %for.body.i
  %4 = trunc i64 %indvars.iv.i to i32
  %cmp = icmp sgt i32 %1, %4
  br i1 %cmp, label %if.then, label %if.end

if.then:                                          ; preds = %_ZNK20btAlignedObjectArrayIP17btCollisionObjectE16findLinearSearchERKS1_.exit
  %5 = getelementptr ptr, ptr %2, i64 %wide.trip.count.i
  %arrayidx.i4 = getelementptr i8, ptr %5, i64 -8
  %6 = load ptr, ptr %arrayidx.i4, align 8
  %sext = shl i64 %indvars.iv.i, 32
  %idxprom.i6 = ashr exact i64 %sext, 32
  %arrayidx.i7 = getelementptr inbounds ptr, ptr %2, i64 %idxprom.i6
  store ptr %6, ptr %arrayidx.i7, align 8
  %7 = load i32, ptr %m_size.i.i, align 4
  %dec.i = add nsw i32 %7, -1
  store i32 %dec.i, ptr %m_size.i.i, align 4
  br label %if.end

if.end:                                           ; preds = %for.inc.i, %entry, %if.then, %_ZNK20btAlignedObjectArrayIP17btCollisionObjectE16findLinearSearchERKS1_.exit
  ret void
}